; Function Attrs: mustprogress uwtable
define internal void @_ZL26deadline_init_channel_elemP20grpc_channel_elementP25grpc_channel_element_args(ptr noalias nocapture writeonly sret(%"class.absl::lts_20230802::Status") align 8 %agg.result, ptr nocapture readnone %0, ptr nocapture noundef readonly %args) #3 {
entry:
  %is_last = getelementptr inbounds i8, ptr %args, i64 20
  %1 = load i32, ptr %is_last, align 4
  %tobool.not = icmp eq i32 %1, 0
  br i1 %tobool.not, label %do.end, label %if.then

if.then:                                          ; preds = %entry
  tail call void @gpr_assertion_failed(ptr noundef nonnull @.str, i32 noundef 249, ptr noundef nonnull @.str.11) #24
  unreachable

do.end:                                           ; preds = %entry
  store i64 0, ptr %agg.result, align 8, !alias.scope !16
  ret void
}